; Function Attrs: mustprogress nofree norecurse nosync nounwind willreturn memory(argmem: read) uwtable
define noundef zeroext i1 @_ZNK7testing14ExitedWithCodeclEi(ptr noundef nonnull readonly align 4 captures(none) dereferenceable(4) %0, i32 noundef %1) local_unnamed_addr #18 align 2 {
  %3 = and i32 %1, 127
  %4 = icmp eq i32 %3, 0
  %5 = lshr i32 %1, 8
  %6 = and i32 %5, 255
  %7 = load i32, ptr %0, align 4
  %8 = icmp eq i32 %6, %7
  %9 = select i1 %4, i1 %8, i1 false
  ret i1 %9
}